; Function Attrs: nounwind uwtable
define dso_local void @vu_queue_flush(ptr noundef %0, ptr noundef captures(none) %1, i32 noundef %2) local_unnamed_addr #3 {
  %4 = getelementptr inbounds nuw i8, ptr %0, i64 136
  %5 = load i8, ptr %4, align 8, !range !5, !noundef !6
  %6 = trunc nuw i8 %5 to i1
  br i1 %6, label %vu_is_vq_usable.exit.thread, label %7, !prof !7

7:                                                ; preds = %3
  %8 = getelementptr inbounds nuw i8, ptr %1, i64 16
  %9 = load ptr, ptr %8, align 8
  %.not.i = icmp eq ptr %9, null
  br i1 %.not.i, label %10, label %vu_is_vq_usable.exit, !prof !7

10:                                               ; preds = %7
  %11 = getelementptr inbounds nuw i8, ptr %1, i64 136
  %12 = load i64, ptr %11, align 8
  %.not9.i = icmp eq i64 %12, 0
  br i1 %.not9.i, label %vu_is_vq_usable.exit.thread, label %13

13:                                               ; preds = %10
  %14 = getelementptr inbounds nuw i8, ptr %1, i64 144
  %15 = load i64, ptr %14, align 8
  %.not10.i = icmp eq i64 %15, 0
  br i1 %.not10.i, label %vu_is_vq_usable.exit.thread, label %16

16:                                               ; preds = %13
  %17 = getelementptr inbounds nuw i8, ptr %1, i64 152
  %18 = load i64, ptr %17, align 8
  %.not11.i = icmp eq i64 %18, 0
  br i1 %.not11.i, label %vu_is_vq_usable.exit.thread, label %19

19:                                               ; preds = %16
  %20 = tail call fastcc zeroext i1 @map_ring(ptr noundef nonnull %0, ptr noundef nonnull %1)
  br i1 %20, label %21, label %vu_is_vq_usable.exit

21:                                               ; preds = %19
  tail call void (ptr, ptr, ...) @vu_panic(ptr noundef nonnull %0, ptr noundef nonnull @.str.98)
  br label %vu_is_vq_usable.exit.thread

vu_is_vq_usable.exit:                             ; preds = %19, %7
  tail call void asm sideeffect "", "~{memory},~{dirflag},~{fpsr},~{flags}"() #21, !srcloc !16
  fence release
  %22 = getelementptr inbounds nuw i8, ptr %1, i64 84
  %23 = load i16, ptr %22, align 4
  %24 = trunc i32 %2 to i16
  %25 = add i16 %23, %24
  %26 = getelementptr inbounds nuw i8, ptr %1, i64 24
  %27 = load ptr, ptr %26, align 8
  %28 = getelementptr inbounds nuw i8, ptr %27, i64 2
  store i16 %25, ptr %28, align 2
  %29 = getelementptr inbounds nuw i8, ptr %1, i64 32
  %30 = load i64, ptr %29, align 8
  %31 = add i64 %30, 2
  tail call fastcc void @vu_log_write(ptr noundef nonnull %0, i64 noundef %31, i64 noundef 2)
  store i16 %25, ptr %22, align 4
  %32 = getelementptr inbounds nuw i8, ptr %1, i64 92
  %33 = load i32, ptr %32, align 4
  %34 = sub i32 %33, %2
  store i32 %34, ptr %32, align 4
  %35 = getelementptr inbounds nuw i8, ptr %1, i64 86
  %36 = load i16, ptr %35, align 2
  %37 = sub i16 %25, %36
  %38 = sext i16 %37 to i32
  %39 = and i32 %2, 65535
  %40 = icmp sgt i32 %39, %38
  br i1 %40, label %41, label %vu_is_vq_usable.exit.thread, !prof !7

41:                                               ; preds = %vu_is_vq_usable.exit
  %42 = getelementptr inbounds nuw i8, ptr %1, i64 88
  store i8 0, ptr %42, align 8
  br label %vu_is_vq_usable.exit.thread

vu_is_vq_usable.exit.thread:                      ; preds = %10, %13, %16, %3, %21, %vu_is_vq_usable.exit, %41
  ret void
}